; Function Attrs: mustprogress nofree norecurse nosync nounwind willreturn memory(argmem: write) uwtable
define hidden void @opj_bio_init_enc(ptr noundef writeonly captures(none) initializes((0, 32)) %0, ptr noundef %1, i32 noundef %2) local_unnamed_addr #3 {
  store ptr %1, ptr %0, align 8, !tbaa !10
  %4 = zext i32 %2 to i64
  %5 = getelementptr inbounds nuw i8, ptr %1, i64 %4
  %6 = getelementptr inbounds nuw i8, ptr %0, i64 8
  store ptr %5, ptr %6, align 8, !tbaa !11
  %7 = getelementptr inbounds nuw i8, ptr %0, i64 16
  store ptr %1, ptr %7, align 8, !tbaa !3
  %8 = getelementptr inbounds nuw i8, ptr %0, i64 24
  store i32 0, ptr %8, align 8, !tbaa !12
  %9 = getelementptr inbounds nuw i8, ptr %0, i64 28
  store i32 8, ptr %9, align 4, !tbaa !13
  ret void
}